target datalayout = "e-m:e-p270:32:32-p271:32:32-p272:64:64-i64:64-i128:128-f80:128-n8:16:32:64-S128"
target triple = "x86_64-pc-linux-gnu"

%struct.NSVGcoordinate = type { float, i32 }

; Function Attrs: nounwind uwtable
define internal i32 @nsvg__parseUnits(ptr noundef %0) #0 {
  %2 = alloca i32, align 4
  %3 = alloca ptr, align 8
  store ptr %0, ptr %3, align 8, !tbaa !4
  %4 = load ptr, ptr %3, align 8, !tbaa !4
  %5 = getelementptr inbounds i8, ptr %4, i64 0
  %6 = load i8, ptr %5, align 1, !tbaa !12
  %7 = sext i8 %6 to i32
  %8 = icmp eq i32 %7, 112
  br i1 %8, label %9, label %16

9:                                                ; preds = %1
  %10 = load ptr, ptr %3, align 8, !tbaa !4
  %11 = getelementptr inbounds i8, ptr %10, i64 1
  %12 = load i8, ptr %11, align 1, !tbaa !12
  %13 = sext i8 %12 to i32
  %14 = icmp eq i32 %13, 120
  br i1 %14, label %15, label %16

15:                                               ; preds = %9
  store i32 1, ptr %2, align 4
  br label %123

16:                                               ; preds = %9, %1
  %17 = load ptr, ptr %3, align 8, !tbaa !4
  %18 = getelementptr inbounds i8, ptr %17, i64 0
  %19 = load i8, ptr %18, align 1, !tbaa !12
  %20 = sext i8 %19 to i32
  %21 = icmp eq i32 %20, 112
  br i1 %21, label %22, label %29

22:                                               ; preds = %16
  %23 = load ptr, ptr %3, align 8, !tbaa !4
  %24 = getelementptr inbounds i8, ptr %23, i64 1
  %25 = load i8, ptr %24, align 1, !tbaa !12
  %26 = sext i8 %25 to i32
  %27 = icmp eq i32 %26, 116
  br i1 %27, label %28, label %29

28:                                               ; preds = %22
  store i32 2, ptr %2, align 4
  br label %123

29:                                               ; preds = %22, %16
  %30 = load ptr, ptr %3, align 8, !tbaa !4
  %31 = getelementptr inbounds i8, ptr %30, i64 0
  %32 = load i8, ptr %31, align 1, !tbaa !12
  %33 = sext i8 %32 to i32
  %34 = icmp eq i32 %33, 112
  br i1 %34, label %35, label %42

35:                                               ; preds = %29
  %36 = load ptr, ptr %3, align 8, !tbaa !4
  %37 = getelementptr inbounds i8, ptr %36, i64 1
  %38 = load i8, ptr %37, align 1, !tbaa !12
  %39 = sext i8 %38 to i32
  %40 = icmp eq i32 %39, 99
  br i1 %40, label %41, label %42

41:                                               ; preds = %35
  store i32 3, ptr %2, align 4
  br label %123

42:                                               ; preds = %35, %29
  %43 = load ptr, ptr %3, align 8, !tbaa !4
  %44 = getelementptr inbounds i8, ptr %43, i64 0
  %45 = load i8, ptr %44, align 1, !tbaa !12
  %46 = sext i8 %45 to i32
  %47 = icmp eq i32 %46, 109
  br i1 %47, label %48, label %55

48:                                               ; preds = %42
  %49 = load ptr, ptr %3, align 8, !tbaa !4
  %50 = getelementptr inbounds i8, ptr %49, i64 1
  %51 = load i8, ptr %50, align 1, !tbaa !12
  %52 = sext i8 %51 to i32
  %53 = icmp eq i32 %52, 109
  br i1 %53, label %54, label %55

54:                                               ; preds = %48
  store i32 4, ptr %2, align 4
  br label %123

55:                                               ; preds = %48, %42
  %56 = load ptr, ptr %3, align 8, !tbaa !4
  %57 = getelementptr inbounds i8, ptr %56, i64 0
  %58 = load i8, ptr %57, align 1, !tbaa !12
  %59 = sext i8 %58 to i32
  %60 = icmp eq i32 %59, 99
  br i1 %60, label %61, label %68

61:                                               ; preds = %55
  %62 = load ptr, ptr %3, align 8, !tbaa !4
  %63 = getelementptr inbounds i8, ptr %62, i64 1
  %64 = load i8, ptr %63, align 1, !tbaa !12
  %65 = sext i8 %64 to i32
  %66 = icmp eq i32 %65, 109
  br i1 %66, label %67, label %68

67:                                               ; preds = %61
  store i32 5, ptr %2, align 4
  br label %123

68:                                               ; preds = %61, %55
  %69 = load ptr, ptr %3, align 8, !tbaa !4
  %70 = getelementptr inbounds i8, ptr %69, i64 0
  %71 = load i8, ptr %70, align 1, !tbaa !12
  %72 = sext i8 %71 to i32
  %73 = icmp eq i32 %72, 105
  br i1 %73, label %74, label %81

74:                                               ; preds = %68
  %75 = load ptr, ptr %3, align 8, !tbaa !4
  %76 = getelementptr inbounds i8, ptr %75, i64 1
  %77 = load i8, ptr %76, align 1, !tbaa !12
  %78 = sext i8 %77 to i32
  %79 = icmp eq i32 %78, 110
  br i1 %79, label %80, label %81

80:                                               ; preds = %74
  store i32 6, ptr %2, align 4
  br label %123

81:                                               ; preds = %74, %68
  %82 = load ptr, ptr %3, align 8, !tbaa !4
  %83 = getelementptr inbounds i8, ptr %82, i64 0
  %84 = load i8, ptr %83, align 1, !tbaa !12
  %85 = sext i8 %84 to i32
  %86 = icmp eq i32 %85, 37
  br i1 %86, label %87, label %88

87:                                               ; preds = %81
  store i32 7, ptr %2, align 4
  br label %123

88:                                               ; preds = %81
  %89 = load ptr, ptr %3, align 8, !tbaa !4
  %90 = getelementptr inbounds i8, ptr %89, i64 0
  %91 = load i8, ptr %90, align 1, !tbaa !12
  %92 = sext i8 %91 to i32
  %93 = icmp eq i32 %92, 101
  br i1 %93, label %94, label %101

94:                                               ; preds = %88
  %95 = load ptr, ptr %3, align 8, !tbaa !4
  %96 = getelementptr inbounds i8, ptr %95, i64 1
  %97 = load i8, ptr %96, align 1, !tbaa !12
  %98 = sext i8 %97 to i32
  %99 = icmp eq i32 %98, 109
  br i1 %99, label %100, label %101

100:                                              ; preds = %94
  store i32 8, ptr %2, align 4
  br label %123

101:                                              ; preds = %94, %88
  %102 = load ptr, ptr %3, align 8, !tbaa !4
  %103 = getelementptr inbounds i8, ptr %102, i64 0
  %104 = load i8, ptr %103, align 1, !tbaa !12
  %105 = sext i8 %104 to i32
  %106 = icmp eq i32 %105, 101
  br i1 %106, label %107, label %114

107:                                              ; preds = %101
  %108 = load ptr, ptr %3, align 8, !tbaa !4
  %109 = getelementptr inbounds i8, ptr %108, i64 1
  %110 = load i8, ptr %109, align 1, !tbaa !12
  %111 = sext i8 %110 to i32
  %112 = icmp eq i32 %111, 120
  br i1 %112, label %113, label %114

113:                                              ; preds = %107
  store i32 9, ptr %2, align 4
  br label %123

114:                                              ; preds = %107, %101
  br label %115

115:                                              ; preds = %114
  br label %116

116:                                              ; preds = %115
  br label %117

117:                                              ; preds = %116
  br label %118

118:                                              ; preds = %117
  br label %119

119:                                              ; preds = %118
  br label %120

120:                                              ; preds = %119
  br label %121

121:                                              ; preds = %120
  br label %122

122:                                              ; preds = %121
  store i32 0, ptr %2, align 4
  br label %123

123:                                              ; preds = %122, %113, %100, %87, %80, %67, %54, %41, %28, %15
  %124 = load i32, ptr %2, align 4
  ret i32 %124
}

; Function Attrs: nounwind uwtable
define internal i64 @nsvg__parseCoordinateRaw(ptr noundef %0) #0 {
  %2 = alloca %struct.NSVGcoordinate, align 4
  %3 = alloca ptr, align 8
  %4 = alloca [64 x i8], align 16
  store ptr %0, ptr %3, align 8, !tbaa !4
  call void @llvm.memset.p0.i64(ptr align 4 %2, i8 0, i64 8, i1 false)
  call void @llvm.lifetime.start.p0(i64 64, ptr %4) #11
  %5 = load ptr, ptr %3, align 8, !tbaa !4
  %6 = getelementptr inbounds [64 x i8], ptr %4, i64 0, i64 0
  %7 = call ptr @nsvg__parseNumber(ptr noundef %5, ptr noundef %6, i32 noundef 64)
  %8 = call i32 @nsvg__parseUnits(ptr noundef %7)
  %9 = getelementptr inbounds nuw %struct.NSVGcoordinate, ptr %2, i32 0, i32 1
  store i32 %8, ptr %9, align 4, !tbaa !233
  %10 = getelementptr inbounds [64 x i8], ptr %4, i64 0, i64 0
  %11 = call double @nsvg__atof(ptr noundef %10)
  %12 = fptrunc double %11 to float
  %13 = getelementptr inbounds nuw %struct.NSVGcoordinate, ptr %2, i32 0, i32 0
  store float %12, ptr %13, align 4, !tbaa !231
  call void @llvm.lifetime.end.p0(i64 64, ptr %4) #11
  %14 = load i64, ptr %2, align 4
  ret i64 %14
}