; Function Attrs: nofree nounwind uwtable
define internal fastcc range(i64 0, 42949672960) i64 @nsvg__parseCoordinateRaw(ptr noundef captures(none) %0) unnamed_addr #15 {
  %2 = alloca [64 x i8], align 16
  call void @llvm.lifetime.start.p0(i64 64, ptr nonnull %2) #31
  %3 = call fastcc ptr @nsvg__parseNumber(ptr noundef %0, ptr noundef %2)
  %4 = load i8, ptr %3, align 1, !tbaa !4
  switch i8 %4, label %.thread25.i [
    i8 112, label %5
    i8 109, label %8
    i8 99, label %12
    i8 105, label %16
    i8 37, label %nsvg__parseUnits.exit
    i8 101, label %20
  ]

5:                                                ; preds = %1
  %6 = getelementptr inbounds nuw i8, ptr %3, i64 1
  %7 = load i8, ptr %6, align 1, !tbaa !4
  switch i8 %7, label %.thread25.i [
    i8 120, label %nsvg__parseUnits.exit
    i8 116, label %.fold.split.i
    i8 99, label %.fold.split26.i
  ]

8:                                                ; preds = %1
  %9 = getelementptr inbounds nuw i8, ptr %3, i64 1
  %10 = load i8, ptr %9, align 1, !tbaa !4
  %11 = icmp eq i8 %10, 109
  br i1 %11, label %nsvg__parseUnits.exit, label %.thread25.i

12:                                               ; preds = %1
  %13 = getelementptr inbounds nuw i8, ptr %3, i64 1
  %14 = load i8, ptr %13, align 1, !tbaa !4
  %15 = icmp eq i8 %14, 109
  br i1 %15, label %nsvg__parseUnits.exit, label %.thread25.i

16:                                               ; preds = %1
  %17 = getelementptr inbounds nuw i8, ptr %3, i64 1
  %18 = load i8, ptr %17, align 1, !tbaa !4
  %19 = icmp eq i8 %18, 110
  br i1 %19, label %nsvg__parseUnits.exit, label %.thread25.i

20:                                               ; preds = %1
  %21 = getelementptr inbounds nuw i8, ptr %3, i64 1
  %22 = load i8, ptr %21, align 1, !tbaa !4
  %switch.selectcmp.i = icmp eq i8 %22, 120
  %switch.selectcmp28.i = icmp eq i8 %22, 109
  %23 = select i1 %switch.selectcmp.i, i64 38654705664, i64 0
  %24 = select i1 %switch.selectcmp28.i, i64 34359738368, i64 %23
  br label %nsvg__parseUnits.exit

.thread25.i:                                      ; preds = %16, %12, %8, %5, %1
  br label %nsvg__parseUnits.exit

.fold.split.i:                                    ; preds = %5
  br label %nsvg__parseUnits.exit

.fold.split26.i:                                  ; preds = %5
  br label %nsvg__parseUnits.exit

nsvg__parseUnits.exit:                            ; preds = %1, %5, %8, %12, %16, %20, %.thread25.i, %.fold.split.i, %.fold.split26.i
  %.0.i = phi i64 [ 0, %.thread25.i ], [ 4294967296, %5 ], [ 17179869184, %8 ], [ 21474836480, %12 ], [ 25769803776, %16 ], [ 30064771072, %1 ], [ 8589934592, %.fold.split.i ], [ 12884901888, %.fold.split26.i ], [ %24, %20 ]
  %25 = call fastcc double @nsvg__atof(ptr noundef nonnull %2)
  %26 = fptrunc double %25 to float
  call void @llvm.lifetime.end.p0(i64 64, ptr nonnull %2) #31
  %27 = bitcast float %26 to i32
  %.sroa.0.0.insert.ext = zext i32 %27 to i64
  %.sroa.0.0.insert.insert = or disjoint i64 %.0.i, %.sroa.0.0.insert.ext
  ret i64 %.sroa.0.0.insert.insert
}